target datalayout = "e-m:e-p270:32:32-p271:32:32-p272:64:64-i64:64-i128:128-f80:128-n8:16:32:64-S128"
target triple = "x86_64-pc-linux-gnu"

%struct.strbuf = type { i64, i64, ptr }
%struct.option = type { i32, i32, ptr, ptr, ptr, ptr, i32, ptr, i64, ptr, i64, ptr }

@.str.178 = private unnamed_addr constant [8 x i8] c"verbose\00", align 1
@.str.179 = private unnamed_addr constant [20 x i8] c"include Git version\00", align 1
@.str.180 = private unnamed_addr constant [14 x i8] c"build-options\00", align 1
@.str.181 = private unnamed_addr constant [28 x i8] c"include Git's build options\00", align 1
@__const.cmd_version.usage = private unnamed_addr constant [2 x ptr] [ptr @.str.182, ptr null], align 16
@__const.cmd_version.buf = private unnamed_addr constant %struct.strbuf { i64 0, i64 0, ptr @strbuf_slopbuf }, align 8
@stderr = external global ptr, align 8
@.str.183 = private unnamed_addr constant [4 x i8] c"%s\0A\00", align 1

; Function Attrs: nounwind uwtable
define internal i32 @cmd_version(i32 noundef %0, ptr noundef %1) #0 {
  %3 = alloca i32, align 4
  %4 = alloca ptr, align 8
  %5 = alloca i32, align 4
  %6 = alloca i32, align 4
  %7 = alloca [3 x %struct.option], align 16
  %8 = alloca [2 x ptr], align 16
  %9 = alloca %struct.strbuf, align 8
  store i32 %0, ptr %3, align 4, !tbaa !11
  store ptr %1, ptr %4, align 8, !tbaa !13
  call void @llvm.lifetime.start.p0(i64 4, ptr %5) #12
  store i32 0, ptr %5, align 4, !tbaa !11
  call void @llvm.lifetime.start.p0(i64 4, ptr %6) #12
  store i32 0, ptr %6, align 4, !tbaa !11
  call void @llvm.lifetime.start.p0(i64 264, ptr %7) #12
  %10 = getelementptr inbounds nuw %struct.option, ptr %7, i32 0, i32 0
  store i32 8, ptr %10, align 8, !tbaa !28
  %11 = getelementptr inbounds nuw %struct.option, ptr %7, i32 0, i32 1
  store i32 118, ptr %11, align 4, !tbaa !30
  %12 = getelementptr inbounds nuw %struct.option, ptr %7, i32 0, i32 2
  store ptr @.str.178, ptr %12, align 8, !tbaa !31
  %13 = getelementptr inbounds nuw %struct.option, ptr %7, i32 0, i32 3
  store ptr %5, ptr %13, align 8, !tbaa !32
  %14 = getelementptr inbounds nuw %struct.option, ptr %7, i32 0, i32 4
  store ptr null, ptr %14, align 8, !tbaa !33
  %15 = getelementptr inbounds nuw %struct.option, ptr %7, i32 0, i32 5
  store ptr @.str.179, ptr %15, align 8, !tbaa !34
  %16 = getelementptr inbounds nuw %struct.option, ptr %7, i32 0, i32 6
  store i32 2, ptr %16, align 8, !tbaa !35
  %17 = getelementptr i8, ptr %7, i64 44
  call void @llvm.memset.p0.i64(ptr align 4 %17, i8 0, i64 4, i1 false)
  %18 = getelementptr inbounds nuw %struct.option, ptr %7, i32 0, i32 7
  store ptr null, ptr %18, align 8, !tbaa !36
  %19 = getelementptr inbounds nuw %struct.option, ptr %7, i32 0, i32 8
  store i64 0, ptr %19, align 8, !tbaa !37
  %20 = getelementptr inbounds nuw %struct.option, ptr %7, i32 0, i32 9
  store ptr null, ptr %20, align 8, !tbaa !38
  %21 = getelementptr inbounds nuw %struct.option, ptr %7, i32 0, i32 10
  store i64 0, ptr %21, align 8, !tbaa !39
  %22 = getelementptr inbounds nuw %struct.option, ptr %7, i32 0, i32 11
  store ptr null, ptr %22, align 8, !tbaa !40
  %23 = getelementptr inbounds %struct.option, ptr %7, i64 1
  %24 = getelementptr inbounds nuw %struct.option, ptr %23, i32 0, i32 0
  store i32 9, ptr %24, align 8, !tbaa !28
  %25 = getelementptr inbounds nuw %struct.option, ptr %23, i32 0, i32 1
  store i32 0, ptr %25, align 4, !tbaa !30
  %26 = getelementptr inbounds nuw %struct.option, ptr %23, i32 0, i32 2
  store ptr @.str.180, ptr %26, align 8, !tbaa !31
  %27 = getelementptr inbounds nuw %struct.option, ptr %23, i32 0, i32 3
  store ptr %6, ptr %27, align 8, !tbaa !32
  %28 = getelementptr inbounds nuw %struct.option, ptr %23, i32 0, i32 4
  store ptr null, ptr %28, align 8, !tbaa !33
  %29 = getelementptr inbounds nuw %struct.option, ptr %23, i32 0, i32 5
  store ptr @.str.181, ptr %29, align 8, !tbaa !34
  %30 = getelementptr inbounds nuw %struct.option, ptr %23, i32 0, i32 6
  store i32 2, ptr %30, align 8, !tbaa !35
  %31 = getelementptr i8, ptr %23, i64 44
  call void @llvm.memset.p0.i64(ptr align 4 %31, i8 0, i64 4, i1 false)
  %32 = getelementptr inbounds nuw %struct.option, ptr %23, i32 0, i32 7
  store ptr null, ptr %32, align 8, !tbaa !36
  %33 = getelementptr inbounds nuw %struct.option, ptr %23, i32 0, i32 8
  store i64 1, ptr %33, align 8, !tbaa !37
  %34 = getelementptr inbounds nuw %struct.option, ptr %23, i32 0, i32 9
  store ptr null, ptr %34, align 8, !tbaa !38
  %35 = getelementptr inbounds nuw %struct.option, ptr %23, i32 0, i32 10
  store i64 0, ptr %35, align 8, !tbaa !39
  %36 = getelementptr inbounds nuw %struct.option, ptr %23, i32 0, i32 11
  store ptr null, ptr %36, align 8, !tbaa !40
  %37 = getelementptr inbounds %struct.option, ptr %7, i64 2
  call void @llvm.memset.p0.i64(ptr align 8 %37, i8 0, i64 88, i1 false)
  %38 = getelementptr inbounds nuw %struct.option, ptr %37, i32 0, i32 0
  store i32 0, ptr %38, align 8, !tbaa !28
  call void @llvm.lifetime.start.p0(i64 16, ptr %8) #12
  call void @llvm.memcpy.p0.p0.i64(ptr align 16 %8, ptr align 16 @__const.cmd_version.usage, i64 16, i1 false)
  call void @llvm.lifetime.start.p0(i64 24, ptr %9) #12
  call void @llvm.memcpy.p0.p0.i64(ptr align 8 %9, ptr align 8 @__const.cmd_version.buf, i64 24, i1 false)
  %39 = load i32, ptr %3, align 4, !tbaa !11
  %40 = load ptr, ptr %4, align 8, !tbaa !13
  %41 = getelementptr inbounds [3 x %struct.option], ptr %7, i64 0, i64 0
  %42 = getelementptr inbounds [2 x ptr], ptr %8, i64 0, i64 0
  %43 = call i32 @parse_options(i32 noundef %39, ptr noundef %40, ptr noundef null, ptr noundef %41, ptr noundef %42, i32 noundef 0)
  store i32 %43, ptr %3, align 4, !tbaa !11
  %44 = load i32, ptr %3, align 4, !tbaa !11
  %45 = icmp ne i32 %44, 0
  br i1 %45, label %46, label %49

46:                                               ; preds = %2
  %47 = getelementptr inbounds [2 x ptr], ptr %8, i64 0, i64 0
  %48 = getelementptr inbounds [3 x %struct.option], ptr %7, i64 0, i64 0
  call void @usage_with_options(ptr noundef %47, ptr noundef %48) #11
  unreachable

49:                                               ; preds = %2
  %50 = load i32, ptr %6, align 4, !tbaa !11
  call void @get_version_info(ptr noundef %9, i32 noundef %50)
  %51 = load ptr, ptr @stderr, align 8, !tbaa !77
  %52 = getelementptr inbounds nuw %struct.strbuf, ptr %9, i32 0, i32 2
  %53 = load ptr, ptr %52, align 8, !tbaa !23
  %54 = call i32 (ptr, ptr, ...) @fprintf(ptr noundef %51, ptr noundef @.str.183, ptr noundef %53) #12
  call void @strbuf_release(ptr noundef %9)
  call void @llvm.lifetime.end.p0(i64 24, ptr %9) #12
  call void @llvm.lifetime.end.p0(i64 16, ptr %8) #12
  call void @llvm.lifetime.end.p0(i64 264, ptr %7) #12
  call void @llvm.lifetime.end.p0(i64 4, ptr %6) #12
  call void @llvm.lifetime.end.p0(i64 4, ptr %5) #12
  ret i32 0
}