; Function Attrs: nounwind uwtable
define internal noundef i32 @cmd_version(i32 noundef %0, ptr noundef %1) #2 {
  %3 = alloca i32, align 4
  %4 = alloca i32, align 4
  %5 = alloca [3 x %struct.option], align 16
  %6 = alloca [2 x ptr], align 16
  %7 = alloca %struct.strbuf, align 8
  call void @llvm.lifetime.start.p0(i64 4, ptr nonnull %3) #18
  store i32 0, ptr %3, align 4, !tbaa !20
  call void @llvm.lifetime.start.p0(i64 4, ptr nonnull %4) #18
  store i32 0, ptr %4, align 4, !tbaa !20
  call void @llvm.lifetime.start.p0(i64 264, ptr nonnull %5) #18
  store i32 8, ptr %5, align 16, !tbaa !22
  %8 = getelementptr inbounds nuw i8, ptr %5, i64 4
  store i32 118, ptr %8, align 4, !tbaa !24
  %9 = getelementptr inbounds nuw i8, ptr %5, i64 8
  store ptr @.str.178, ptr %9, align 8, !tbaa !25
  %10 = getelementptr inbounds nuw i8, ptr %5, i64 16
  store ptr %3, ptr %10, align 16, !tbaa !26
  %11 = getelementptr inbounds nuw i8, ptr %5, i64 24
  store ptr null, ptr %11, align 8, !tbaa !27
  %12 = getelementptr inbounds nuw i8, ptr %5, i64 32
  store ptr @.str.179, ptr %12, align 16, !tbaa !28
  %13 = getelementptr inbounds nuw i8, ptr %5, i64 40
  store i32 2, ptr %13, align 8, !tbaa !29
  %14 = getelementptr inbounds nuw i8, ptr %5, i64 44
  %15 = getelementptr inbounds nuw i8, ptr %5, i64 88
  call void @llvm.memset.p0.i64(ptr noundef nonnull align 4 dereferenceable(44) %14, i8 0, i64 44, i1 false)
  store i32 9, ptr %15, align 8, !tbaa !22
  %16 = getelementptr inbounds nuw i8, ptr %5, i64 92
  store i32 0, ptr %16, align 4, !tbaa !24
  %17 = getelementptr inbounds nuw i8, ptr %5, i64 96
  store ptr @.str.180, ptr %17, align 16, !tbaa !25
  %18 = getelementptr inbounds nuw i8, ptr %5, i64 104
  store ptr %4, ptr %18, align 8, !tbaa !26
  %19 = getelementptr inbounds nuw i8, ptr %5, i64 112
  store ptr null, ptr %19, align 16, !tbaa !27
  %20 = getelementptr inbounds nuw i8, ptr %5, i64 120
  store ptr @.str.181, ptr %20, align 8, !tbaa !28
  %21 = getelementptr inbounds nuw i8, ptr %5, i64 128
  store i32 2, ptr %21, align 16, !tbaa !29
  %22 = getelementptr inbounds nuw i8, ptr %5, i64 132
  store i32 0, ptr %22, align 4
  %23 = getelementptr inbounds nuw i8, ptr %5, i64 136
  store ptr null, ptr %23, align 8, !tbaa !30
  %24 = getelementptr inbounds nuw i8, ptr %5, i64 144
  store i64 1, ptr %24, align 16, !tbaa !31
  %25 = getelementptr inbounds nuw i8, ptr %5, i64 152
  call void @llvm.memset.p0.i64(ptr noundef nonnull align 8 dereferenceable(112) %25, i8 0, i64 112, i1 false)
  call void @llvm.lifetime.start.p0(i64 16, ptr nonnull %6) #18
  call void @llvm.memcpy.p0.p0.i64(ptr noundef nonnull align 16 dereferenceable(16) %6, ptr noundef nonnull align 16 dereferenceable(16) @__const.cmd_version.usage, i64 16, i1 false)
  call void @llvm.lifetime.start.p0(i64 24, ptr nonnull %7) #18
  call void @llvm.memcpy.p0.p0.i64(ptr noundef nonnull align 8 dereferenceable(24) %7, ptr noundef nonnull align 8 dereferenceable(24) @__const.cmd_diagnose.diagnostics_root, i64 24, i1 false)
  %26 = call i32 @parse_options(i32 noundef %0, ptr noundef %1, ptr noundef null, ptr noundef nonnull %5, ptr noundef nonnull %6, i32 noundef 0) #18
  %.not = icmp eq i32 %26, 0
  br i1 %.not, label %28, label %27

27:                                               ; preds = %2
  call void @usage_with_options(ptr noundef nonnull %6, ptr noundef nonnull %5) #17
  unreachable

28:                                               ; preds = %2
  %29 = load i32, ptr %4, align 4, !tbaa !20
  call void @get_version_info(ptr noundef nonnull %7, i32 noundef %29) #18
  %30 = load ptr, ptr @stderr, align 8, !tbaa !70
  %31 = getelementptr inbounds nuw i8, ptr %7, i64 16
  %32 = load ptr, ptr %31, align 8, !tbaa !17
  %33 = call i32 (ptr, ptr, ...) @fprintf(ptr noundef %30, ptr noundef nonnull @.str.183, ptr noundef %32) #21
  call void @strbuf_release(ptr noundef nonnull %7) #18
  call void @llvm.lifetime.end.p0(i64 24, ptr nonnull %7) #18
  call void @llvm.lifetime.end.p0(i64 16, ptr nonnull %6) #18
  call void @llvm.lifetime.end.p0(i64 264, ptr nonnull %5) #18
  call void @llvm.lifetime.end.p0(i64 4, ptr nonnull %4) #18
  call void @llvm.lifetime.end.p0(i64 4, ptr nonnull %3) #18
  ret i32 0
}